target datalayout = "e-m:e-p270:32:32-p271:32:32-p272:64:64-i64:64-i128:128-f80:128-n8:16:32:64-S128"
target triple = "x86_64-unknown-linux-gnu"

@hashtab_node_cachep = internal unnamed_addr global ptr null, section ".data..ro_after_init", align 8
@.str = private unnamed_addr constant [13 x i8] c"hashtab_node\00", align 1

; Function Attrs: fn_ret_thunk_extern nounwind null_pointer_is_valid
define dso_local noundef i32 @hashtab_init(ptr nocapture noundef writeonly %0, i32 noundef %1) local_unnamed_addr #0 align 16 {
  %3 = icmp eq i32 %1, 0
  br i1 %3, label %11, label %4

4:                                                ; preds = %2
  %5 = zext i32 %1 to i64
  %6 = add nsw i64 %5, -1
  %7 = tail call i32 asm "bsrq $1,${0:q}", "=r,rm,0,~{dirflag},~{fpsr},~{flags}"(i64 %6, i32 -1) #5, !srcloc !5
  %8 = add i32 %7, 1
  %9 = zext nneg i32 %8 to i64
  %10 = shl nuw i64 1, %9
  br label %11

11:                                               ; preds = %4, %2
  %12 = phi i64 [ 0, %2 ], [ %10, %4 ]
  %13 = trunc i64 %12 to i32
  %14 = getelementptr inbounds i8, ptr %0, i64 8
  %15 = icmp eq i32 %13, 0
  tail call void @llvm.memset.p0.i64(ptr noundef align 8 dereferenceable(16) %0, i8 0, i64 16, i1 false)
  br i1 %15, label %22, label %16

16:                                               ; preds = %11
  %17 = shl i64 %12, 3
  %18 = and i64 %17, 34359738360
  %19 = tail call noalias align 8 ptr @__kmalloc(i64 noundef %18, i32 noundef 3520) #6
  store ptr %19, ptr %0, align 8
  %20 = icmp eq ptr %19, null
  br i1 %20, label %22, label %21

21:                                               ; preds = %16
  store i32 %13, ptr %14, align 8
  br label %22

22:                                               ; preds = %21, %16, %11
  %23 = phi i32 [ -12, %16 ], [ 0, %21 ], [ 0, %11 ]
  ret i32 %23
}

; Function Attrs: fn_ret_thunk_extern nounwind null_pointer_is_valid
define dso_local noundef i32 @__hashtab_insert(ptr nocapture noundef %0, ptr nocapture noundef %1, ptr noundef %2, ptr noundef %3) local_unnamed_addr #0 align 16 {
  %5 = load ptr, ptr @hashtab_node_cachep, align 8
  %6 = tail call noalias align 8 ptr @kmem_cache_alloc(ptr noundef %5, i32 noundef 3520) #7
  %7 = icmp eq ptr %6, null
  br i1 %7, label %15, label %8

8:                                                ; preds = %4
  store ptr %2, ptr %6, align 8
  %9 = getelementptr inbounds i8, ptr %6, i64 8
  store ptr %3, ptr %9, align 8
  %10 = load ptr, ptr %1, align 8
  %11 = getelementptr inbounds i8, ptr %6, i64 16
  store ptr %10, ptr %11, align 8
  store ptr %6, ptr %1, align 8
  %12 = getelementptr inbounds i8, ptr %0, i64 12
  %13 = load i32, ptr %12, align 4
  %14 = add i32 %13, 1
  store i32 %14, ptr %12, align 4
  br label %15

15:                                               ; preds = %8, %4
  %16 = phi i32 [ 0, %8 ], [ -12, %4 ]
  ret i32 %16
}

; Function Attrs: fn_ret_thunk_extern nounwind null_pointer_is_valid
define dso_local void @hashtab_destroy(ptr nocapture noundef %0) local_unnamed_addr #0 align 16 {
  %2 = getelementptr inbounds i8, ptr %0, i64 8
  %3 = load i32, ptr %2, align 8
  %4 = icmp eq i32 %3, 0
  br i1 %4, label %24, label %5

5:                                                ; preds = %17, %1
  %6 = phi i64 [ %20, %17 ], [ 0, %1 ]
  %7 = load ptr, ptr %0, align 8
  %8 = getelementptr ptr, ptr %7, i64 %6
  %9 = load ptr, ptr %8, align 8
  %10 = icmp eq ptr %9, null
  br i1 %10, label %17, label %11

11:                                               ; preds = %11, %5
  %12 = phi ptr [ %14, %11 ], [ %9, %5 ]
  %13 = getelementptr inbounds i8, ptr %12, i64 16
  %14 = load ptr, ptr %13, align 8
  %15 = load ptr, ptr @hashtab_node_cachep, align 8
  tail call void @kmem_cache_free(ptr noundef %15, ptr noundef nonnull %12) #7
  %16 = icmp eq ptr %14, null
  br i1 %16, label %17, label %11, !llvm.loop !6

17:                                               ; preds = %11, %5
  %18 = load ptr, ptr %0, align 8
  %19 = getelementptr ptr, ptr %18, i64 %6
  store ptr null, ptr %19, align 8
  %20 = add nuw nsw i64 %6, 1
  %21 = load i32, ptr %2, align 8
  %22 = zext i32 %21 to i64
  %23 = icmp ult i64 %20, %22
  br i1 %23, label %5, label %24, !llvm.loop !9

24:                                               ; preds = %17, %1
  %25 = load ptr, ptr %0, align 8
  tail call void @kfree(ptr noundef %25) #7
  store ptr null, ptr %0, align 8
  ret void
}

; Function Attrs: null_pointer_is_valid
declare dso_local void @kmem_cache_free(ptr noundef, ptr noundef) local_unnamed_addr #1

; Function Attrs: null_pointer_is_valid
declare dso_local void @kfree(ptr noundef) local_unnamed_addr #1

; Function Attrs: fn_ret_thunk_extern nounwind null_pointer_is_valid
define dso_local i32 @hashtab_map(ptr nocapture noundef readonly %0, ptr nocapture noundef readonly %1, ptr noundef %2) local_unnamed_addr #0 align 16 {
  %4 = getelementptr inbounds i8, ptr %0, i64 8
  %5 = load i32, ptr %4, align 8
  %6 = icmp eq i32 %5, 0
  br i1 %6, label %29, label %7

7:                                                ; preds = %24, %3
  %8 = phi i64 [ %25, %24 ], [ 0, %3 ]
  %9 = load ptr, ptr %0, align 8
  %10 = getelementptr ptr, ptr %9, i64 %8
  %11 = load ptr, ptr %10, align 8
  %12 = icmp eq ptr %11, null
  br i1 %12, label %24, label %17

13:                                               ; preds = %17
  %14 = getelementptr inbounds i8, ptr %18, i64 16
  %15 = load ptr, ptr %14, align 8
  %16 = icmp eq ptr %15, null
  br i1 %16, label %24, label %17, !llvm.loop !10

17:                                               ; preds = %13, %7
  %18 = phi ptr [ %15, %13 ], [ %11, %7 ]
  %19 = load ptr, ptr %18, align 8
  %20 = getelementptr inbounds i8, ptr %18, i64 8
  %21 = load ptr, ptr %20, align 8
  %22 = tail call i32 %1(ptr noundef %19, ptr noundef %21, ptr noundef %2) #7
  %23 = icmp eq i32 %22, 0
  br i1 %23, label %13, label %29

24:                                               ; preds = %13, %7
  %25 = add nuw nsw i64 %8, 1
  %26 = load i32, ptr %4, align 8
  %27 = zext i32 %26 to i64
  %28 = icmp ult i64 %25, %27
  br i1 %28, label %7, label %29, !llvm.loop !11

29:                                               ; preds = %24, %17, %3
  %30 = phi i32 [ 0, %3 ], [ %22, %17 ], [ 0, %24 ]
  ret i32 %30
}

; Function Attrs: fn_ret_thunk_extern nounwind null_pointer_is_valid
define dso_local noundef i32 @hashtab_duplicate(ptr nocapture noundef %0, ptr nocapture noundef readonly %1, ptr nocapture noundef readonly %2, ptr nocapture noundef readonly %3, ptr noundef %4) local_unnamed_addr #0 align 16 {
  tail call void @llvm.memset.p0.i64(ptr noundef align 8 dereferenceable(16) %0, i8 0, i64 16, i1 false)
  %6 = getelementptr inbounds i8, ptr %1, i64 8
  %7 = load i32, ptr %6, align 8
  %8 = zext i32 %7 to i64
  %9 = shl nuw nsw i64 %8, 3
  %10 = tail call noalias align 8 ptr @__kmalloc(i64 noundef %9, i32 noundef 3520) #6
  store ptr %10, ptr %0, align 8
  %11 = icmp eq ptr %10, null
  br i1 %11, label %82, label %12

12:                                               ; preds = %5
  %13 = load i32, ptr %6, align 8
  %14 = getelementptr inbounds i8, ptr %0, i64 8
  store i32 %13, ptr %14, align 8
  %15 = load i32, ptr %6, align 8
  %16 = icmp eq i32 %15, 0
  br i1 %16, label %82, label %17

17:                                               ; preds = %12
  %18 = getelementptr inbounds i8, ptr %0, i64 12
  br label %19

19:                                               ; preds = %51, %17
  %20 = phi i64 [ 0, %17 ], [ %52, %51 ]
  %21 = load ptr, ptr %1, align 8
  %22 = getelementptr ptr, ptr %21, i64 %20
  %23 = load ptr, ptr %22, align 8
  %24 = icmp eq ptr %23, null
  br i1 %24, label %51, label %25

25:                                               ; preds = %44, %19
  %26 = phi ptr [ %49, %44 ], [ %23, %19 ]
  %27 = phi ptr [ %29, %44 ], [ null, %19 ]
  %28 = load ptr, ptr @hashtab_node_cachep, align 8
  %29 = tail call noalias align 8 ptr @kmem_cache_alloc(ptr noundef %28, i32 noundef 3520) #7
  %30 = icmp eq ptr %29, null
  br i1 %30, label %56, label %31

31:                                               ; preds = %25
  %32 = tail call i32 %2(ptr noundef nonnull %29, ptr noundef nonnull %26, ptr noundef %4) #7
  %33 = icmp eq i32 %32, 0
  br i1 %33, label %36, label %34

34:                                               ; preds = %31
  %35 = load ptr, ptr @hashtab_node_cachep, align 8
  tail call void @kmem_cache_free(ptr noundef %35, ptr noundef nonnull %29) #7
  br label %56

36:                                               ; preds = %31
  %37 = getelementptr inbounds i8, ptr %29, i64 16
  store ptr null, ptr %37, align 8
  %38 = icmp eq ptr %27, null
  br i1 %38, label %39, label %42

39:                                               ; preds = %36
  %40 = load ptr, ptr %0, align 8
  %41 = getelementptr ptr, ptr %40, i64 %20
  br label %44

42:                                               ; preds = %36
  %43 = getelementptr inbounds i8, ptr %27, i64 16
  br label %44

44:                                               ; preds = %42, %39
  %45 = phi ptr [ %43, %42 ], [ %41, %39 ]
  store ptr %29, ptr %45, align 8
  %46 = load i32, ptr %18, align 4
  %47 = add i32 %46, 1
  store i32 %47, ptr %18, align 4
  %48 = getelementptr inbounds i8, ptr %26, i64 16
  %49 = load ptr, ptr %48, align 8
  %50 = icmp eq ptr %49, null
  br i1 %50, label %51, label %25, !llvm.loop !12

51:                                               ; preds = %44, %19
  %52 = add nuw nsw i64 %20, 1
  %53 = load i32, ptr %6, align 8
  %54 = zext i32 %53 to i64
  %55 = icmp ult i64 %52, %54
  br i1 %55, label %19, label %82, !llvm.loop !13

56:                                               ; preds = %34, %25
  %57 = load i32, ptr %14, align 8
  %58 = icmp eq i32 %57, 0
  br i1 %58, label %80, label %59

59:                                               ; preds = %75, %56
  %60 = phi i64 [ %76, %75 ], [ 0, %56 ]
  %61 = load ptr, ptr %0, align 8
  %62 = getelementptr ptr, ptr %61, i64 %60
  %63 = load ptr, ptr %62, align 8
  %64 = icmp eq ptr %63, null
  br i1 %64, label %75, label %65

65:                                               ; preds = %65, %59
  %66 = phi ptr [ %68, %65 ], [ %63, %59 ]
  %67 = getelementptr inbounds i8, ptr %66, i64 16
  %68 = load ptr, ptr %67, align 8
  %69 = load ptr, ptr %66, align 8
  %70 = getelementptr inbounds i8, ptr %66, i64 8
  %71 = load ptr, ptr %70, align 8
  %72 = tail call i32 %3(ptr noundef %69, ptr noundef %71, ptr noundef %4) #7
  %73 = load ptr, ptr @hashtab_node_cachep, align 8
  tail call void @kmem_cache_free(ptr noundef %73, ptr noundef nonnull %66) #7
  %74 = icmp eq ptr %68, null
  br i1 %74, label %75, label %65, !llvm.loop !14

75:                                               ; preds = %65, %59
  %76 = add nuw nsw i64 %60, 1
  %77 = load i32, ptr %14, align 8
  %78 = zext i32 %77 to i64
  %79 = icmp ult i64 %76, %78
  br i1 %79, label %59, label %80, !llvm.loop !15

80:                                               ; preds = %75, %56
  %81 = load ptr, ptr %0, align 8
  tail call void @kfree(ptr noundef %81) #7
  tail call void @llvm.memset.p0.i64(ptr noundef align 8 dereferenceable(16) %0, i8 0, i64 16, i1 false)
  br label %82

82:                                               ; preds = %80, %51, %12, %5
  %83 = phi i32 [ -12, %80 ], [ -12, %5 ], [ 0, %12 ], [ 0, %51 ]
  ret i32 %83
}

; Function Attrs: nocallback nofree nounwind willreturn memory(argmem: write)
declare void @llvm.memset.p0.i64(ptr nocapture writeonly, i8, i64, i1 immarg) #2

; Function Attrs: cold fn_ret_thunk_extern nounwind null_pointer_is_valid optsize
define dso_local void @hashtab_cache_init() local_unnamed_addr #3 section ".init.text" align 16 {
  %1 = tail call ptr @kmem_cache_create(ptr noundef nonnull @.str, i32 noundef 24, i32 noundef 0, i32 noundef 262144, ptr noundef null) #7
  store ptr %1, ptr @hashtab_node_cachep, align 8
  ret void
}

; Function Attrs: null_pointer_is_valid
declare dso_local ptr @kmem_cache_create(ptr noundef, i32 noundef, i32 noundef, i32 noundef, ptr noundef) local_unnamed_addr #1

; Function Attrs: null_pointer_is_valid allocsize(0)
declare dso_local noalias ptr @__kmalloc(i64 noundef, i32 noundef) local_unnamed_addr #4

; Function Attrs: null_pointer_is_valid
declare dso_local noalias ptr @kmem_cache_alloc(ptr noundef, i32 noundef) local_unnamed_addr #1


!llvm.module.flags = !{!0, !1, !2, !3, !4}

!0 = !{i32 1, !"wchar_size", i32 2}
!1 = !{i32 8, !"cf-protection-branch", i32 1}
!2 = !{i32 4, !"function_return_thunk_extern", i32 1}
!3 = !{i32 4, !"indirect_branch_cs_prefix", i32 1}
!4 = !{i32 4, !"SkipRaxSetup", i32 1}
!5 = !{i64 300316}
!6 = distinct !{!6, !7, !8}
!7 = !{!"llvm.loop.mustprogress"}
!8 = !{!"llvm.loop.unroll.disable"}
!9 = distinct !{!9, !7, !8}
!10 = distinct !{!10, !7, !8}
!11 = distinct !{!11, !7, !8}
!12 = distinct !{!12, !7, !8}
!13 = distinct !{!13, !7, !8}
!14 = distinct !{!14, !7, !8}
!15 = distinct !{!15, !7, !8}
